; Function Attrs: mustprogress nounwind uwtable
define dso_local void @_ZN5clang7tooling13FileByteRangeC2ERKNS_13SourceManagerENS_15CharSourceRangeE(ptr noundef nonnull align 8 dereferenceable(40) %0, ptr noundef nonnull align 8 dereferenceable(696) %1, i64 %2, i8 %3) unnamed_addr #0 align 2 {
  %5 = alloca %"struct.std::__cxx11::basic_string<char>::__sv_wrapper", align 8
  %6 = alloca %"class.std::__cxx11::basic_string", align 8
  %7 = alloca %"class.std::allocator", align 1
  %.sroa.011.0.extract.trunc = trunc i64 %2 to i32
  tail call void @_ZNSt7__cxx1112basic_stringIcSt11char_traitsIcESaIcEEC1Ev(ptr noundef nonnull align 8 dereferenceable(32) %0) #10
  %8 = getelementptr inbounds nuw i8, ptr %0, i64 32
  store i32 0, ptr %8, align 8
  %9 = getelementptr inbounds nuw i8, ptr %0, i64 36
  store i32 0, ptr %9, align 4
  %10 = tail call { ptr, i64 } @_ZNK5clang13SourceManager11getFilenameENS_14SourceLocationE(ptr noundef nonnull align 8 dereferenceable(696) %1, i32 %.sroa.011.0.extract.trunc) #10
  %11 = extractvalue { ptr, i64 } %10, 0
  %12 = extractvalue { ptr, i64 } %10, 1
  call void @_ZNSaIcEC1Ev(ptr noundef nonnull align 1 dereferenceable(1) %7) #10
  call void @llvm.lifetime.start.p0(i64 16, ptr nonnull %5)
  %13 = call { i64, ptr } @_ZNSt7__cxx1112basic_stringIcSt11char_traitsIcESaIcEE17_S_to_string_viewESt17basic_string_viewIcS2_E(i64 %12, ptr %11) #10
  %14 = extractvalue { i64, ptr } %13, 0
  %15 = extractvalue { i64, ptr } %13, 1
  call void @_ZNSt7__cxx1112basic_stringIcSt11char_traitsIcESaIcEE12__sv_wrapperC1ESt17basic_string_viewIcS2_E(ptr noundef nonnull align 8 dereferenceable(16) %5, i64 %14, ptr %15) #10
  %16 = load i64, ptr %5, align 8
  %17 = getelementptr inbounds nuw i8, ptr %5, i64 8
  %18 = load ptr, ptr %17, align 8
  call void @_ZNSt7__cxx1112basic_stringIcSt11char_traitsIcESaIcEEC2ENS4_12__sv_wrapperERKS3_(ptr noundef nonnull align 8 dereferenceable(32) %6, i64 %16, ptr %18, ptr noundef nonnull align 1 dereferenceable(1) %7) #10
  call void @llvm.lifetime.end.p0(i64 16, ptr nonnull %5)
  %19 = call noundef nonnull align 8 dereferenceable(32) ptr @_ZNSt7__cxx1112basic_stringIcSt11char_traitsIcESaIcEEaSEOS4_(ptr noundef nonnull align 8 dereferenceable(32) %0, ptr noundef nonnull align 8 dereferenceable(32) %6) #10
  call void @_ZNSt7__cxx1112basic_stringIcSt11char_traitsIcESaIcEED1Ev(ptr noundef nonnull align 8 dereferenceable(32) %6) #10
  call void @_ZNSaIcED1Ev(ptr noundef nonnull align 1 dereferenceable(1) %7) #10
  %20 = call noundef zeroext i1 @_ZNKSt7__cxx1112basic_stringIcSt11char_traitsIcESaIcEE5emptyEv(ptr noundef nonnull align 8 dereferenceable(32) %0) #10
  br i1 %20, label %26, label %21

21:                                               ; preds = %4
  %.sroa.3.0.extract.shift = lshr i64 %2, 32
  %.sroa.3.0.extract.trunc = trunc nuw i64 %.sroa.3.0.extract.shift to i32
  %22 = call i64 @_ZNK5clang13SourceManager16getDecomposedLocENS_14SourceLocationE(ptr noundef nonnull align 8 dereferenceable(696) %1, i32 %.sroa.011.0.extract.trunc)
  %.sroa.1.0.extract.shift.i = lshr i64 %22, 32
  %.sroa.1.0.extract.trunc.i = trunc nuw i64 %.sroa.1.0.extract.shift.i to i32
  store i32 %.sroa.1.0.extract.trunc.i, ptr %8, align 8
  %23 = call i64 @_ZNK5clang13SourceManager16getDecomposedLocENS_14SourceLocationE(ptr noundef nonnull align 8 dereferenceable(696) %1, i32 %.sroa.3.0.extract.trunc)
  %.sroa.1.0.extract.shift.i9 = lshr i64 %23, 32
  %.sroa.1.0.extract.trunc.i10 = trunc nuw i64 %.sroa.1.0.extract.shift.i9 to i32
  %24 = load i32, ptr %8, align 8
  %25 = sub i32 %.sroa.1.0.extract.trunc.i10, %24
  store i32 %25, ptr %9, align 4
  br label %26

26:                                               ; preds = %21, %4
  ret void
}